; Function Attrs: mustprogress uwtable
define void @_ZN6icu_776number4impl17blueprint_helpers29generateNumberingSystemOptionERKNS_15NumberingSystemERNS_13UnicodeStringER10UErrorCode(ptr noundef nonnull align 8 dereferenceable(86) %0, ptr noundef nonnull align 8 dereferenceable(64) %1, ptr noundef nonnull readnone align 4 captures(none) dereferenceable(4) %2) local_unnamed_addr #1 personality ptr @__gxx_personality_v0 {
  %4 = alloca %"class.icu_77::UnicodeString", align 8
  call void @llvm.lifetime.start.p0(i64 64, ptr nonnull %4) #18
  %5 = tail call noundef ptr @_ZNK6icu_7715NumberingSystem7getNameEv(ptr noundef nonnull align 8 dereferenceable(86) %0)
  call void @_ZN6icu_7713UnicodeStringC1EPKciNS0_10EInvariantE(ptr noundef nonnull align 8 dereferenceable(64) %4, ptr noundef %5, i32 noundef -1, i32 noundef 0)
  %6 = getelementptr inbounds nuw i8, ptr %4, i64 8
  %7 = load i16, ptr %6, align 8, !tbaa !25
  %8 = icmp slt i16 %7, 0
  %9 = ashr i16 %7, 5
  %10 = sext i16 %9 to i32
  %11 = getelementptr inbounds nuw i8, ptr %4, i64 12
  %12 = load i32, ptr %11, align 4
  %13 = select i1 %8, i32 %12, i32 %10
  %14 = invoke noundef nonnull align 8 dereferenceable(64) ptr @_ZN6icu_7713UnicodeString8doAppendERKS0_ii(ptr noundef nonnull align 8 dereferenceable(64) %1, ptr noundef nonnull align 8 dereferenceable(64) %4, i32 noundef 0, i32 noundef %13)
          to label %_ZN6icu_7713UnicodeString6appendERKS0_.exit unwind label %15

_ZN6icu_7713UnicodeString6appendERKS0_.exit:      ; preds = %3
  call void @_ZN6icu_7713UnicodeStringD1Ev(ptr noundef nonnull align 8 dereferenceable(64) %4) #18
  call void @llvm.lifetime.end.p0(i64 64, ptr nonnull %4) #18
  ret void

15:                                               ; preds = %3
  %16 = landingpad { ptr, i32 }
          cleanup
  call void @_ZN6icu_7713UnicodeStringD1Ev(ptr noundef nonnull align 8 dereferenceable(64) %4) #18
  call void @llvm.lifetime.end.p0(i64 64, ptr nonnull %4) #18
  resume { ptr, i32 } %16
}